(dp1
S'failed'
p2
(lp3
S'2'
aS'6'
asS'source_names'
p4
(lp5
S'.'
asS'ids'
p6
(dp7
I1
(S'/usr/lib/python2.6/site-packages/nose/failure.pyc'
S'nose.failure'
S'Failure.runTest'
tp8
sI2
(S'/home/554/lxp554/dea-qgis/opendatacube-qgis/src/DataCubeQuery/test'
S'DataCubeQuery.test'
Ntp9
sI3
(S'/home/554/lxp554/dea-qgis/opendatacube-qgis/src/DataCubeQuery/test/test_init.py'
S'DataCubeQuery.test.test_init'
p10
S'TestInit.test_read_init'
tp11
sI4
(S'/home/554/lxp554/dea-qgis/opendatacube-qgis/src/DataCubeQuery/test/test_qgis_environment.py'
S'DataCubeQuery.test.test_qgis_environment'
p12
S'QGISTest.test_projection'
tp13
sI5
(S'/home/554/lxp554/dea-qgis/opendatacube-qgis/src/DataCubeQuery/test/test_qgis_environment.py'
g12
S'QGISTest.test_qgis_environment'
tp14
sI6
(S'/home/554/lxp554/dea-qgis/opendatacube-qgis/src/DataCubeQuery/test/test_translations.py'
S'DataCubeQuery.test.test_translations'
p15
S'SafeTranslationsTest.test_qgis_translations'
tp16
ss.